; Function Attrs: nounwind uwtable
define ptr @l_Std_Time_Week_Offset_toDays(ptr noundef %0) local_unnamed_addr #0 {
  %2 = load ptr, ptr @l_Std_Time_Week_Offset_toDays___closed__1, align 8, !tbaa !11
  %3 = ptrtoint ptr %0 to i64
  %4 = and i64 %3, 1
  %.not.i = icmp eq i64 %4, 0
  br i1 %.not.i, label %.critedge.i, label %5, !prof !13

5:                                                ; preds = %1
  %6 = ptrtoint ptr %2 to i64
  %7 = and i64 %6, 1
  %.not7.i = icmp eq i64 %7, 0
  br i1 %.not7.i, label %.critedge.i, label %8, !prof !13

8:                                                ; preds = %5
  %9 = shl i64 %3, 31
  %10 = ashr i64 %9, 32
  %11 = shl i64 %6, 31
  %12 = ashr i64 %11, 32
  %13 = mul nsw i64 %12, %10
  %14 = add nsw i64 %13, 2147483648
  %15 = icmp ult i64 %14, 4294967296
  br i1 %15, label %16, label %21, !prof !10

16:                                               ; preds = %8
  %17 = shl nsw i64 %13, 1
  %18 = and i64 %17, 8589934590
  %19 = or disjoint i64 %18, 1
  %20 = inttoptr i64 %19 to ptr
  br label %lean_int_mul.exit

21:                                               ; preds = %8
  %22 = tail call ptr @lean_big_int64_to_int(i64 noundef range(i64 -4611686016279904256, 4611686018427387905) %13) #5
  br label %lean_int_mul.exit

.critedge.i:                                      ; preds = %5, %1
  %23 = tail call ptr @lean_int_big_mul(ptr noundef %0, ptr noundef %2) #5
  br label %lean_int_mul.exit

lean_int_mul.exit:                                ; preds = %16, %21, %.critedge.i
  %.0.i = phi ptr [ %23, %.critedge.i ], [ %20, %16 ], [ %22, %21 ]
  ret ptr %.0.i
}